Certificate:
    Data:
        Version: 3 (0x2)
        Serial Number: 1 (0x1)
    Signature Algorithm: sha256WithRSAEncryption
        Issuer: C=US, ST=New York, L=Ronkonkoma, O=Soter Technologies, OU=Eng, CN=self.sotertechnologies.com/emailAddress=mohammed.elbadry@sotertechnologies.com
        Validity
            Not Before: Dec 17 13:58:00 2019 GMT
            Not After : Dec 16 13:58:00 2020 GMT
        Subject: C=US, ST=New York, O=Soter Technologies, OU=Eng, CN=client.sotertechnologies.com/emailAddress=mohammed.elbadry@sotertechnologies.com
        Subject Public Key Info:
            Public Key Algorithm: rsaEncryption
                Public-Key: (2048 bit)
                Modulus:
                    00:e9:cf:60:80:84:c3:0f:5d:d0:6b:9d:3c:a5:5d:
                    3b:e1:68:09:39:fa:f3:9d:3f:38:c0:18:e9:b5:69:
                    9f:de:ac:a1:03:4a:bc:d9:a9:c4:ac:35:b4:c8:77:
                    1d:77:d3:48:10:b3:db:3a:a7:fa:22:de:bf:8e:ff:
                    73:dd:d5:6a:c7:6a:b4:67:6e:67:eb:21:b0:7d:57:
                    b2:7a:ec:2f:09:ac:1e:3b:80:ed:95:94:ee:8c:a2:
                    59:2b:ae:31:bf:05:22:0a:7d:21:8e:6c:98:aa:16:
                    36:36:bd:0b:2c:55:2a:b0:5c:63:0a:21:d2:4d:52:
                    74:6d:1b:db:c9:f8:57:32:4b:56:01:64:32:df:17:
                    ab:ef:28:e8:6c:73:b9:06:e7:69:f5:c6:0e:0a:9f:
                    6e:06:ee:af:57:79:21:d9:36:f0:f9:d1:13:c5:bd:
                    55:f2:b1:24:8a:16:d8:48:ca:38:a9:3b:68:a7:62:
                    08:13:ea:3e:60:78:a5:3e:41:d6:ec:f9:8c:f0:82:
                    b4:fc:43:8f:08:63:22:8b:e6:4f:e1:0b:d4:a2:c5:
                    48:a3:0a:ea:cf:31:46:0b:09:24:68:1b:26:a5:c3:
                    d7:70:38:9c:5c:1c:78:b3:3d:7e:0a:f2:53:5a:7c:
                    47:8b:8f:23:00:6e:1f:e3:3d:d9:c5:57:2d:e0:7d:
                    38:3b
                Exponent: 65537 (0x10001)
        X509v3 extensions:
            X509v3 Basic Constraints: 
                CA:FALSE
            X509v3 Key Usage: 
                Digital Signature, Non Repudiation, Key Encipherment
    Signature Algorithm: sha256WithRSAEncryption
         39:15:9e:87:90:10:0f:a3:24:95:44:ad:6d:b0:c1:d8:4f:44:
         11:bc:7d:a6:6c:f3:df:ed:8a:a2:48:ee:ec:36:b3:0a:12:44:
         d9:fe:94:82:08:fe:fe:25:cc:27:67:02:a7:5a:77:00:dc:ad:
         25:07:5e:ad:32:54:66:b5:97:b8:c3:87:6f:84:b6:87:5a:25:
         cf:1e:06:0b:61:f1:70:2f:b6:28:b6:66:47:44:03:82:9f:79:
         f0:c0:f1:fd:e6:81:00:6c:cc:68:3a:d7:fb:dc:fa:3c:4e:11:
         04:21:98:5a:4a:e7:38:e1:8a:76:45:d5:af:9a:a7:72:54:18:
         60:7e:99:81:83:b3:6d:dc:de:57:eb:e1:4d:09:78:af:12:6f:
         28:3e:7c:d0:4d:ae:39:51:b1:b2:35:16:89:93:43:b5:6f:56:
         2e:dd:fc:a8:95:59:b4:60:9b:bb:53:95:59:00:ef:80:ef:f5:
         bb:8a:f7:d8:4b:46:c3:6f:ef:7b:3e:95:35:1e:d1:cb:a2:ee:
         e5:c3:47:5a:cd:71:c2:c3:75:f4:cc:93:a8:94:55:24:70:5b:
         96:2d:61:64:c9:a9:d5:f1:6c:a8:df:e1:90:3c:0e:f6:d8:fb:
         f1:60:bc:45:40:7a:2f:66:47:ff:0a:bb:cf:65:85:f7:7d:cc:
         eb:1a:e8:a6
-----BEGIN CERTIFICATE-----
MIID/DCCAuSgAwIBAgIBATANBgkqhkiG9w0BAQsFADCBvDELMAkGA1UEBhMCVVMx
ETAPBgNVBAgMCE5ldyBZb3JrMRMwEQYDVQQHDApSb25rb25rb21hMRswGQYDVQQK
DBJTb3RlciBUZWNobm9sb2dpZXMxDDAKBgNVBAsMA0VuZzEjMCEGA1UEAwwac2Vs
Zi5zb3RlcnRlY2hub2xvZ2llcy5jb20xNTAzBgkqhkiG9w0BCQEWJm1vaGFtbWVk
LmVsYmFkcnlAc290ZXJ0ZWNobm9sb2dpZXMuY29tMB4XDTE5MTIxNzEzNTgwMFoX
DTIwMTIxNjEzNTgwMFowgakxCzAJBgNVBAYTAlVTMREwDwYDVQQIDAhOZXcgWW9y
azEbMBkGA1UECgwSU290ZXIgVGVjaG5vbG9naWVzMQwwCgYDVQQLDANFbmcxJTAj
BgNVBAMMHGNsaWVudC5zb3RlcnRlY2hub2xvZ2llcy5jb20xNTAzBgkqhkiG9w0B
CQEWJm1vaGFtbWVkLmVsYmFkcnlAc290ZXJ0ZWNobm9sb2dpZXMuY29tMIIBIjAN
BgkqhkiG9w0BAQEFAAOCAQ8AMIIBCgKCAQEA6c9ggITDD13Qa508pV074WgJOfrz
nT84wBjptWmf3qyhA0q82anErDW0yHcdd9NIELPbOqf6It6/jv9z3dVqx2q0Z25n
6yGwfVeyeuwvCaweO4DtlZTujKJZK64xvwUiCn0hjmyYqhY2Nr0LLFUqsFxjCiHS
TVJ0bRvbyfhXMktWAWQy3xer7yjobHO5Budp9cYOCp9uBu6vV3kh2Tbw+dETxb1V
8rEkihbYSMo4qTtop2IIE+o+YHilPkHW7PmM8IK0/EOPCGMii+ZP4QvUosVIowrq
zzFGCwkkaBsmpcPXcDicXBx4sz1+CvJTWnxHi48jAG4f4z3ZxVct4H04OwIDAQAB
oxowGDAJBgNVHRMEAjAAMAsGA1UdDwQEAwIF4DANBgkqhkiG9w0BAQsFAAOCAQEA
ORWeh5AQD6MklUStbbDB2E9EEbx9pmzz3+2Kokju7DazChJE2f6Uggj+/iXMJ2cC
p1p3ANytJQderTJUZrWXuMOHb4S2h1olzx4GC2HxcC+2KLZmR0QDgp958MDx/eaB
AGzMaDrX+9z6PE4RBCGYWkrnOOGKdkXVr5qnclQYYH6ZgYOzbdzeV+vhTQl4rxJv
KD580E2uOVGxsjUWiZNDtW9WLt38qJVZtGCbu1OVWQDvgO/1u4r32EtGw2/vez6V
NR7Ry6Lu5cNHWs1xwsN19MyTqJRVJHBbli1hZMmp1fFsqN/hkDwO9tj78WC8RUB6
L2ZH/wq7z2WF933M6xropg==
-----END CERTIFICATE-----
